; Function Attrs: mustprogress nounwind uwtable
define hidden noundef nonnull align 8 dereferenceable(72) ptr @_ZN16LogMessageBuffer7warningEPKcz(ptr noundef nonnull returned align 8 dereferenceable(72) %0, ptr noundef %1, ...) local_unnamed_addr #1 align 2 {
  %3 = alloca [1 x %struct.__va_list_tag], align 16
  call void @llvm.va_start.p0(ptr nonnull %3)
  %4 = load ptr, ptr %0, align 8
  %5 = load ptr, ptr %4, align 8
  call void %5(ptr noundef nonnull align 8 dereferenceable(72) %0, i32 noundef 4, ptr noundef %1, ptr noundef nonnull %3) #7
  call void @llvm.va_end.p0(ptr nonnull %3)
  ret ptr %0
}